; Function Attrs: nounwind uwtable
define dso_local void @zfree_usable(ptr noundef %ptr, ptr nocapture noundef writeonly %usable) local_unnamed_addr #3 {
entry:
  %cmp = icmp eq ptr %ptr, null
  br i1 %cmp, label %return, label %if.end

if.end:                                           ; preds = %entry
  %call = tail call i64 @je_malloc_usable_size(ptr noundef nonnull %ptr) #24
  store i64 %call, ptr %usable, align 8
  %0 = atomicrmw sub ptr @used_memory, i64 %call monotonic, align 8
  tail call void @je_free(ptr noundef nonnull %ptr) #24
  br label %return

return:                                           ; preds = %entry, %if.end
  ret void
}